target datalayout = "e-m:e-p270:32:32-p271:32:32-p272:64:64-i64:64-i128:128-f80:128-n8:16:32:64-S128"
target triple = "x86_64-unknown-linux-gnu"

%"struct.std::atomic.37" = type { %"struct.std::__atomic_base.38" }
%"struct.std::__atomic_base.38" = type { i8 }
%class.z3_log_ctx = type { i8 }
%"class.std::__cxx11::basic_string" = type { %"struct.std::__cxx11::basic_string<char>::_Alloc_hider", i64, %union.anon }
%"struct.std::__cxx11::basic_string<char>::_Alloc_hider" = type { ptr }
%union.anon = type { i64, [8 x i8] }
%class.context_params = type { i32, i32, %"class.std::__cxx11::basic_string", %"class.std::__cxx11::basic_string", i8, i8, i8, i8, i8, i8, i8, i8, i8, i8, i8, %"class.std::__cxx11::basic_string" }

@g_z3_log_enabled = external global %"struct.std::atomic.37", align 1

; Function Attrs: noreturn nounwind uwtable
define linkonce_odr hidden void @__clang_call_terminate(ptr noundef %0) #7 comdat {
  %2 = call ptr @__cxa_begin_catch(ptr %0) #3
  call void @_ZSt9terminatev() #12
  unreachable
}

; Function Attrs: mustprogress nounwind uwtable
define linkonce_odr noundef i32 @_ZStanSt12memory_orderSt23__memory_order_modifier(i32 noundef %__m, i32 noundef %__mod) #5 comdat {
entry:
  %__m.addr = alloca i32, align 4
  %__mod.addr = alloca i32, align 4
  store i32 %__m, ptr %__m.addr, align 4
  store i32 %__mod, ptr %__mod.addr, align 4
  %0 = load i32, ptr %__m.addr, align 4
  %1 = load i32, ptr %__mod.addr, align 4
  %and = and i32 %0, %1
  ret i32 %and
}

; Function Attrs: mustprogress nounwind uwtable
define linkonce_odr hidden void @_ZN14context_paramsD2Ev(ptr noundef nonnull align 8 dereferenceable(120) %this) unnamed_addr #5 comdat align 2 {
entry:
  %this.addr = alloca ptr, align 8
  store ptr %this, ptr %this.addr, align 8
  %this1 = load ptr, ptr %this.addr, align 8
  %m_encoding = getelementptr inbounds %class.context_params, ptr %this1, i32 0, i32 15
  call void @_ZNSt7__cxx1112basic_stringIcSt11char_traitsIcESaIcEED1Ev(ptr noundef nonnull align 8 dereferenceable(32) %m_encoding) #3
  %m_trace_file_name = getelementptr inbounds %class.context_params, ptr %this1, i32 0, i32 3
  call void @_ZNSt7__cxx1112basic_stringIcSt11char_traitsIcESaIcEED1Ev(ptr noundef nonnull align 8 dereferenceable(32) %m_trace_file_name) #3
  %m_dot_proof_file = getelementptr inbounds %class.context_params, ptr %this1, i32 0, i32 2
  call void @_ZNSt7__cxx1112basic_stringIcSt11char_traitsIcESaIcEED1Ev(ptr noundef nonnull align 8 dereferenceable(32) %m_dot_proof_file) #3
  ret void
}

; Function Attrs: mustprogress nounwind uwtable
define linkonce_odr hidden noundef zeroext i1 @_ZNSt13__atomic_baseIbEaSEb(ptr noundef nonnull align 1 dereferenceable(1) %this, i1 noundef zeroext %__i) #5 comdat align 2 personality ptr @__gxx_personality_v0 {
entry:
  %this.addr.i = alloca ptr, align 8
  %__i.addr.i = alloca i8, align 1
  %__m.addr.i = alloca i32, align 4
  %__b.i = alloca i32, align 4
  %.atomictmp.i = alloca i8, align 1
  %this.addr = alloca ptr, align 8
  %__i.addr = alloca i8, align 1
  store ptr %this, ptr %this.addr, align 8
  %frombool = zext i1 %__i to i8
  store i8 %frombool, ptr %__i.addr, align 1
  %this1 = load ptr, ptr %this.addr, align 8
  %0 = load i8, ptr %__i.addr, align 1
  %tobool = trunc i8 %0 to i1
  store ptr %this1, ptr %this.addr.i, align 8
  %frombool.i = zext i1 %tobool to i8
  store i8 %frombool.i, ptr %__i.addr.i, align 1
  store i32 5, ptr %__m.addr.i, align 4
  %this1.i = load ptr, ptr %this.addr.i, align 8
  %1 = load i32, ptr %__m.addr.i, align 4
  %call.i = invoke noundef i32 @_ZStanSt12memory_orderSt23__memory_order_modifier(i32 noundef %1, i32 noundef 65535)
          to label %invoke.cont.i unwind label %terminate.lpad.i

invoke.cont.i:                                    ; preds = %entry
  store i32 %call.i, ptr %__b.i, align 4
  %2 = load i32, ptr %__m.addr.i, align 4
  %3 = load i8, ptr %__i.addr.i, align 1
  %tobool.i = trunc i8 %3 to i1
  %frombool8.i = zext i1 %tobool.i to i8
  store i8 %frombool8.i, ptr %.atomictmp.i, align 1
  switch i32 %2, label %monotonic.i [
    i32 3, label %release.i
    i32 5, label %seqcst.i
  ]

monotonic.i:                                      ; preds = %invoke.cont.i
  %4 = load i8, ptr %.atomictmp.i, align 1
  store atomic i8 %4, ptr %this1.i monotonic, align 1
  br label %_ZNSt13__atomic_baseIbE5storeEbSt12memory_order.exit

release.i:                                        ; preds = %invoke.cont.i
  %5 = load i8, ptr %.atomictmp.i, align 1
  store atomic i8 %5, ptr %this1.i release, align 1
  br label %_ZNSt13__atomic_baseIbE5storeEbSt12memory_order.exit

seqcst.i:                                         ; preds = %invoke.cont.i
  %6 = load i8, ptr %.atomictmp.i, align 1
  store atomic i8 %6, ptr %this1.i seq_cst, align 1
  br label %_ZNSt13__atomic_baseIbE5storeEbSt12memory_order.exit

terminate.lpad.i:                                 ; preds = %entry
  %7 = landingpad { ptr, i32 }
          catch ptr null
  %8 = extractvalue { ptr, i32 } %7, 0
  call void @__clang_call_terminate(ptr %8) #12
  unreachable

_ZNSt13__atomic_baseIbE5storeEbSt12memory_order.exit: ; preds = %seqcst.i, %release.i, %monotonic.i
  %9 = load i8, ptr %__i.addr, align 1
  %tobool2 = trunc i8 %9 to i1
  ret i1 %tobool2
}

; Function Attrs: mustprogress nounwind uwtable
define linkonce_odr hidden void @_ZN18ast_context_paramsD2Ev(ptr noundef nonnull align 8 dereferenceable(128) %this) unnamed_addr #5 comdat align 2 {
entry:
  %this.addr = alloca ptr, align 8
  store ptr %this, ptr %this.addr, align 8
  %this1 = load ptr, ptr %this.addr, align 8
  call void @_ZN14context_paramsD2Ev(ptr noundef nonnull align 8 dereferenceable(120) %this1) #3
  ret void
}

; Function Attrs: mustprogress nounwind uwtable
define linkonce_odr hidden noundef zeroext i1 @_ZNSt6atomicIbEaSEb(ptr noundef nonnull align 1 dereferenceable(1) %this, i1 noundef zeroext %__i) #5 comdat align 2 {
entry:
  %this.addr = alloca ptr, align 8
  %__i.addr = alloca i8, align 1
  store ptr %this, ptr %this.addr, align 8
  %frombool = zext i1 %__i to i8
  store i8 %frombool, ptr %__i.addr, align 1
  %this1 = load ptr, ptr %this.addr, align 8
  %_M_base = getelementptr inbounds %"struct.std::atomic.37", ptr %this1, i32 0, i32 0
  %0 = load i8, ptr %__i.addr, align 1
  %tobool = trunc i8 %0 to i1
  %call = call noundef zeroext i1 @_ZNSt13__atomic_baseIbEaSEb(ptr noundef nonnull align 1 dereferenceable(1) %_M_base, i1 noundef zeroext %tobool) #3
  ret i1 %call
}

; Function Attrs: mustprogress nounwind uwtable
define linkonce_odr hidden noundef zeroext i1 @_ZNSt6atomicIbE8exchangeEbSt12memory_order(ptr noundef nonnull align 1 dereferenceable(1) %this, i1 noundef zeroext %__i, i32 noundef %__m) #5 comdat align 2 {
entry:
  %this.addr.i = alloca ptr, align 8
  %__i.addr.i = alloca i8, align 1
  %__m.addr.i = alloca i32, align 4
  %.atomictmp.i = alloca i8, align 1
  %atomic-temp.i = alloca i8, align 1
  %this.addr = alloca ptr, align 8
  %__i.addr = alloca i8, align 1
  %__m.addr = alloca i32, align 4
  store ptr %this, ptr %this.addr, align 8
  %frombool = zext i1 %__i to i8
  store i8 %frombool, ptr %__i.addr, align 1
  store i32 %__m, ptr %__m.addr, align 4
  %this1 = load ptr, ptr %this.addr, align 8
  %_M_base = getelementptr inbounds %"struct.std::atomic.37", ptr %this1, i32 0, i32 0
  %0 = load i8, ptr %__i.addr, align 1
  %tobool = trunc i8 %0 to i1
  %1 = load i32, ptr %__m.addr, align 4
  store ptr %_M_base, ptr %this.addr.i, align 8
  %frombool.i = zext i1 %tobool to i8
  store i8 %frombool.i, ptr %__i.addr.i, align 1
  store i32 %1, ptr %__m.addr.i, align 4
  %this1.i = load ptr, ptr %this.addr.i, align 8
  %2 = load i32, ptr %__m.addr.i, align 4
  %3 = load i8, ptr %__i.addr.i, align 1
  %tobool.i = trunc i8 %3 to i1
  %frombool2.i = zext i1 %tobool.i to i8
  store i8 %frombool2.i, ptr %.atomictmp.i, align 1
  switch i32 %2, label %monotonic.i [
    i32 1, label %acquire.i
    i32 2, label %acquire.i
    i32 3, label %release.i
    i32 4, label %acqrel.i
    i32 5, label %seqcst.i
  ]

monotonic.i:                                      ; preds = %entry
  %4 = load i8, ptr %.atomictmp.i, align 1
  %5 = atomicrmw xchg ptr %this1.i, i8 %4 monotonic, align 1
  store i8 %5, ptr %atomic-temp.i, align 1
  br label %_ZNSt13__atomic_baseIbE8exchangeEbSt12memory_order.exit

acquire.i:                                        ; preds = %entry, %entry
  %6 = load i8, ptr %.atomictmp.i, align 1
  %7 = atomicrmw xchg ptr %this1.i, i8 %6 acquire, align 1
  store i8 %7, ptr %atomic-temp.i, align 1
  br label %_ZNSt13__atomic_baseIbE8exchangeEbSt12memory_order.exit

release.i:                                        ; preds = %entry
  %8 = load i8, ptr %.atomictmp.i, align 1
  %9 = atomicrmw xchg ptr %this1.i, i8 %8 release, align 1
  store i8 %9, ptr %atomic-temp.i, align 1
  br label %_ZNSt13__atomic_baseIbE8exchangeEbSt12memory_order.exit

acqrel.i:                                         ; preds = %entry
  %10 = load i8, ptr %.atomictmp.i, align 1
  %11 = atomicrmw xchg ptr %this1.i, i8 %10 acq_rel, align 1
  store i8 %11, ptr %atomic-temp.i, align 1
  br label %_ZNSt13__atomic_baseIbE8exchangeEbSt12memory_order.exit

seqcst.i:                                         ; preds = %entry
  %12 = load i8, ptr %.atomictmp.i, align 1
  %13 = atomicrmw xchg ptr %this1.i, i8 %12 seq_cst, align 1
  store i8 %13, ptr %atomic-temp.i, align 1
  br label %_ZNSt13__atomic_baseIbE8exchangeEbSt12memory_order.exit

_ZNSt13__atomic_baseIbE8exchangeEbSt12memory_order.exit: ; preds = %seqcst.i, %acqrel.i, %release.i, %acquire.i, %monotonic.i
  %14 = load i8, ptr %atomic-temp.i, align 1
  %tobool3.i = trunc i8 %14 to i1
  ret i1 %tobool3.i
}

; Function Attrs: mustprogress uwtable
define linkonce_odr hidden void @_Z7deallocI18ast_context_paramsEvPT_(ptr noundef %ptr) #4 comdat {
entry:
  %ptr.addr = alloca ptr, align 8
  store ptr %ptr, ptr %ptr.addr, align 8
  %0 = load ptr, ptr %ptr.addr, align 8
  %cmp = icmp eq ptr %0, null
  br i1 %cmp, label %if.then, label %if.end

if.then:                                          ; preds = %entry
  br label %return

if.end:                                           ; preds = %entry
  %1 = load ptr, ptr %ptr.addr, align 8
  call void @_ZN18ast_context_paramsD2Ev(ptr noundef nonnull align 8 dereferenceable(128) %1) #3
  %2 = load ptr, ptr %ptr.addr, align 8
  call void @_ZN6memory10deallocateEPv(ptr noundef %2)
  br label %return

return:                                           ; preds = %if.end, %if.then
  ret void
}

; Function Attrs: mustprogress nounwind uwtable
define linkonce_odr hidden void @_ZN10z3_log_ctxD2Ev(ptr noundef nonnull align 1 dereferenceable(1) %this) unnamed_addr #5 comdat align 2 {
entry:
  %this.addr = alloca ptr, align 8
  store ptr %this, ptr %this.addr, align 8
  %this1 = load ptr, ptr %this.addr, align 8
  %m_prev = getelementptr inbounds %class.z3_log_ctx, ptr %this1, i32 0, i32 0
  %0 = load i8, ptr %m_prev, align 1
  %tobool = trunc i8 %0 to i1
  br i1 %tobool, label %if.then, label %if.end

if.then:                                          ; preds = %entry
  %call = call noundef zeroext i1 @_ZNSt6atomicIbEaSEb(ptr noundef nonnull align 1 dereferenceable(1) @g_z3_log_enabled, i1 noundef zeroext true) #3
  br label %if.end

if.end:                                           ; preds = %if.then, %entry
  ret void
}

; Function Attrs: mustprogress nounwind uwtable
define linkonce_odr hidden noundef zeroext i1 @_ZNK10z3_log_ctx7enabledEv(ptr noundef nonnull align 1 dereferenceable(1) %this) #5 comdat align 2 {
entry:
  %this.addr = alloca ptr, align 8
  store ptr %this, ptr %this.addr, align 8
  %this1 = load ptr, ptr %this.addr, align 8
  %m_prev = getelementptr inbounds %class.z3_log_ctx, ptr %this1, i32 0, i32 0
  %0 = load i8, ptr %m_prev, align 1
  %tobool = trunc i8 %0 to i1
  ret i1 %tobool
}

; Function Attrs: mustprogress nounwind uwtable
define linkonce_odr hidden void @_ZN10z3_log_ctxC2Ev(ptr noundef nonnull align 1 dereferenceable(1) %this) unnamed_addr #5 comdat align 2 {
entry:
  %this.addr = alloca ptr, align 8
  store ptr %this, ptr %this.addr, align 8
  %this1 = load ptr, ptr %this.addr, align 8
  %call = call noundef zeroext i1 @_ZNSt6atomicIbE8exchangeEbSt12memory_order(ptr noundef nonnull align 1 dereferenceable(1) @g_z3_log_enabled, i1 noundef zeroext false, i32 noundef 5) #3
  %m_prev = getelementptr inbounds %class.z3_log_ctx, ptr %this1, i32 0, i32 0
  %frombool = zext i1 %call to i8
  store i8 %frombool, ptr %m_prev, align 1
  ret void
}

; Function Attrs: mustprogress uwtable
define void @Z3_del_config(ptr noundef %c) #4 personality ptr @__gxx_personality_v0 {
entry:
  %c.addr = alloca ptr, align 8
  %_LOG_CTX = alloca %class.z3_log_ctx, align 1
  %exn.slot = alloca ptr, align 8
  %ehselector.slot = alloca i32, align 4
  store ptr %c, ptr %c.addr, align 8
  call void @_ZN10z3_log_ctxC2Ev(ptr noundef nonnull align 1 dereferenceable(1) %_LOG_CTX)
  %call = invoke noundef zeroext i1 @_ZNK10z3_log_ctx7enabledEv(ptr noundef nonnull align 1 dereferenceable(1) %_LOG_CTX)
          to label %invoke.cont unwind label %lpad

invoke.cont:                                      ; preds = %entry
  br i1 %call, label %if.then, label %if.end

if.then:                                          ; preds = %invoke.cont
  %0 = load ptr, ptr %c.addr, align 8
  invoke void @_Z17log_Z3_del_configP10_Z3_config(ptr noundef %0)
          to label %invoke.cont1 unwind label %lpad

invoke.cont1:                                     ; preds = %if.then
  br label %if.end

lpad:                                             ; preds = %if.end, %if.then, %entry
  %1 = landingpad { ptr, i32 }
          cleanup
  %2 = extractvalue { ptr, i32 } %1, 0
  store ptr %2, ptr %exn.slot, align 8
  %3 = extractvalue { ptr, i32 } %1, 1
  store i32 %3, ptr %ehselector.slot, align 4
  call void @_ZN10z3_log_ctxD2Ev(ptr noundef nonnull align 1 dereferenceable(1) %_LOG_CTX) #3
  br label %eh.resume

if.end:                                           ; preds = %invoke.cont1, %invoke.cont
  %4 = load ptr, ptr %c.addr, align 8
  invoke void @_Z7deallocI18ast_context_paramsEvPT_(ptr noundef %4)
          to label %invoke.cont2 unwind label %lpad

invoke.cont2:                                     ; preds = %if.end
  call void @_ZN10z3_log_ctxD2Ev(ptr noundef nonnull align 1 dereferenceable(1) %_LOG_CTX) #3
  ret void

eh.resume:                                        ; preds = %lpad
  %exn = load ptr, ptr %exn.slot, align 8
  %sel = load i32, ptr %ehselector.slot, align 4
  %lpad.val = insertvalue { ptr, i32 } poison, ptr %exn, 0
  %lpad.val3 = insertvalue { ptr, i32 } %lpad.val, i32 %sel, 1
  resume { ptr, i32 } %lpad.val3
}