; Function Attrs: mustprogress uwtable
define void @Z3_del_config(ptr noundef %c) local_unnamed_addr #3 personality ptr @__gxx_personality_v0 {
entry:
  %0 = atomicrmw xchg ptr @g_z3_log_enabled, i8 0 seq_cst, align 1
  %1 = and i8 %0, 1
  %tobool.i.not = icmp eq i8 %1, 0
  br i1 %tobool.i.not, label %if.end, label %if.then

if.then:                                          ; preds = %entry
  invoke void @_Z17log_Z3_del_configP10_Z3_config(ptr noundef %c)
          to label %if.end unwind label %lpad.thread

lpad.thread:                                      ; preds = %if.then
  %2 = landingpad { ptr, i32 }
          cleanup
  br label %if.then.i

lpad:                                             ; preds = %if.end.i
  %3 = landingpad { ptr, i32 }
          cleanup
  br i1 %tobool.i.not, label %_ZN10z3_log_ctxD2Ev.exit, label %if.then.i

if.then.i:                                        ; preds = %lpad.thread, %lpad
  %4 = phi { ptr, i32 } [ %2, %lpad.thread ], [ %3, %lpad ]
  store atomic i8 1, ptr @g_z3_log_enabled seq_cst, align 1
  br label %_ZN10z3_log_ctxD2Ev.exit

_ZN10z3_log_ctxD2Ev.exit:                         ; preds = %lpad, %if.then.i
  %5 = phi { ptr, i32 } [ %3, %lpad ], [ %4, %if.then.i ]
  resume { ptr, i32 } %5

if.end:                                           ; preds = %if.then, %entry
  %cmp.i = icmp eq ptr %c, null
  br i1 %cmp.i, label %invoke.cont2, label %if.end.i

if.end.i:                                         ; preds = %if.end
  %m_encoding.i.i.i = getelementptr inbounds i8, ptr %c, i64 88
  tail call void @_ZNSt7__cxx1112basic_stringIcSt11char_traitsIcESaIcEED1Ev(ptr noundef nonnull align 8 dereferenceable(32) %m_encoding.i.i.i) #10
  %m_trace_file_name.i.i.i = getelementptr inbounds i8, ptr %c, i64 40
  tail call void @_ZNSt7__cxx1112basic_stringIcSt11char_traitsIcESaIcEED1Ev(ptr noundef nonnull align 8 dereferenceable(32) %m_trace_file_name.i.i.i) #10
  %m_dot_proof_file.i.i.i = getelementptr inbounds i8, ptr %c, i64 8
  tail call void @_ZNSt7__cxx1112basic_stringIcSt11char_traitsIcESaIcEED1Ev(ptr noundef nonnull align 8 dereferenceable(32) %m_dot_proof_file.i.i.i) #10
  invoke void @_ZN6memory10deallocateEPv(ptr noundef nonnull %c)
          to label %invoke.cont2 unwind label %lpad

invoke.cont2:                                     ; preds = %if.end, %if.end.i
  br i1 %tobool.i.not, label %_ZN10z3_log_ctxD2Ev.exit5, label %if.then.i3

if.then.i3:                                       ; preds = %invoke.cont2
  store atomic i8 1, ptr @g_z3_log_enabled seq_cst, align 1
  br label %_ZN10z3_log_ctxD2Ev.exit5

_ZN10z3_log_ctxD2Ev.exit5:                        ; preds = %invoke.cont2, %if.then.i3
  ret void
}